target datalayout = "e-m:e-p270:32:32-p271:32:32-p272:64:64-i64:64-i128:128-f80:128-n8:16:32:64-S128"
target triple = "x86_64-pc-linux-gnu"

%struct.SurfaceDataRasInfo = type { %struct.SurfaceDataBounds, ptr, i32, i32, i32, i32, ptr, ptr, ptr, ptr, ptr, ptr, i32, %union.anon.0 }
%struct.SurfaceDataBounds = type { i32, i32, i32, i32 }
%union.anon.0 = type { ptr, [56 x i8] }

; Function Attrs: nounwind uwtable
define hidden void @ByteIndexedToUshortGrayConvert(ptr noundef %0, ptr noundef %1, i32 noundef %2, i32 noundef %3, ptr noundef %4, ptr noundef %5, ptr noundef %6, ptr noundef %7) #1 {
  %9 = alloca ptr, align 8
  %10 = alloca ptr, align 8
  %11 = alloca i32, align 4
  %12 = alloca i32, align 4
  %13 = alloca ptr, align 8
  %14 = alloca ptr, align 8
  %15 = alloca ptr, align 8
  %16 = alloca ptr, align 8
  %17 = alloca [256 x i16], align 16
  %18 = alloca ptr, align 8
  %19 = alloca i32, align 4
  %20 = alloca ptr, align 8
  %21 = alloca i32, align 4
  %22 = alloca i32, align 4
  %23 = alloca i32, align 4
  %24 = alloca i32, align 4
  %25 = alloca i32, align 4
  %26 = alloca i32, align 4
  %27 = alloca i32, align 4
  %28 = alloca i32, align 4
  %29 = alloca ptr, align 8
  %30 = alloca ptr, align 8
  %31 = alloca i32, align 4
  %32 = alloca i32, align 4
  %33 = alloca i32, align 4
  store ptr %0, ptr %9, align 8
  store ptr %1, ptr %10, align 8
  store i32 %2, ptr %11, align 4
  store i32 %3, ptr %12, align 4
  store ptr %4, ptr %13, align 8
  store ptr %5, ptr %14, align 8
  store ptr %6, ptr %15, align 8
  store ptr %7, ptr %16, align 8
  br label %34

34:                                               ; preds = %8
  %35 = load ptr, ptr %13, align 8
  %36 = getelementptr inbounds %struct.SurfaceDataRasInfo, ptr %35, i32 0, i32 6
  %37 = load ptr, ptr %36, align 8
  store ptr %37, ptr %18, align 8
  %38 = load ptr, ptr %13, align 8
  %39 = getelementptr inbounds %struct.SurfaceDataRasInfo, ptr %38, i32 0, i32 5
  %40 = load i32, ptr %39, align 4
  store i32 %40, ptr %19, align 4
  %41 = load i32, ptr %19, align 4
  %42 = icmp uge i32 %41, 256
  br i1 %42, label %43, label %44

43:                                               ; preds = %34
  store i32 256, ptr %19, align 4
  br label %71

44:                                               ; preds = %34
  %45 = load i32, ptr %19, align 4
  %46 = zext i32 %45 to i64
  %47 = getelementptr inbounds [256 x i16], ptr %17, i64 0, i64 %46
  store ptr %47, ptr %20, align 8
  br label %48

48:                                               ; preds = %65, %44
  br label %49

49:                                               ; preds = %48
  br label %50

50:                                               ; preds = %49
  store i32 0, ptr %23, align 4
  store i32 0, ptr %22, align 4
  store i32 0, ptr %21, align 4
  br label %51

51:                                               ; preds = %50
  %52 = load i32, ptr %21, align 4
  %53 = mul nsw i32 19672, %52
  %54 = load i32, ptr %22, align 4
  %55 = mul nsw i32 38621, %54
  %56 = add nsw i32 %53, %55
  %57 = load i32, ptr %23, align 4
  %58 = mul nsw i32 7500, %57
  %59 = add nsw i32 %56, %58
  %60 = sdiv i32 %59, 256
  %61 = trunc i32 %60 to i16
  %62 = load ptr, ptr %20, align 8
  %63 = getelementptr inbounds i16, ptr %62, i64 0
  store i16 %61, ptr %63, align 2
  br label %64

64:                                               ; preds = %51
  br label %65

65:                                               ; preds = %64
  %66 = load ptr, ptr %20, align 8
  %67 = getelementptr inbounds i16, ptr %66, i32 1
  store ptr %67, ptr %20, align 8
  %68 = getelementptr inbounds [256 x i16], ptr %17, i64 0, i64 256
  %69 = icmp ult ptr %67, %68
  br i1 %69, label %48, label %70, !llvm.loop !15

70:                                               ; preds = %65
  br label %71

71:                                               ; preds = %70, %43
  br label %72

72:                                               ; preds = %71
  store i32 0, ptr %24, align 4
  br label %73

73:                                               ; preds = %106, %72
  br label %74

74:                                               ; preds = %73
  %75 = load ptr, ptr %18, align 8
  %76 = load i32, ptr %24, align 4
  %77 = zext i32 %76 to i64
  %78 = getelementptr inbounds i32, ptr %75, i64 %77
  %79 = load i32, ptr %78, align 4
  store i32 %79, ptr %25, align 4
  br label %80

80:                                               ; preds = %74
  br label %81

81:                                               ; preds = %80
  %82 = load i32, ptr %25, align 4
  %83 = and i32 %82, 255
  store i32 %83, ptr %28, align 4
  %84 = load i32, ptr %25, align 4
  %85 = ashr i32 %84, 8
  %86 = and i32 %85, 255
  store i32 %86, ptr %27, align 4
  %87 = load i32, ptr %25, align 4
  %88 = ashr i32 %87, 16
  %89 = and i32 %88, 255
  store i32 %89, ptr %26, align 4
  br label %90

90:                                               ; preds = %81
  %91 = load i32, ptr %26, align 4
  %92 = mul nsw i32 19672, %91
  %93 = load i32, ptr %27, align 4
  %94 = mul nsw i32 38621, %93
  %95 = add nsw i32 %92, %94
  %96 = load i32, ptr %28, align 4
  %97 = mul nsw i32 7500, %96
  %98 = add nsw i32 %95, %97
  %99 = sdiv i32 %98, 256
  %100 = trunc i32 %99 to i16
  %101 = load i32, ptr %24, align 4
  %102 = zext i32 %101 to i64
  %103 = getelementptr inbounds [256 x i16], ptr %17, i64 0, i64 %102
  store i16 %100, ptr %103, align 2
  br label %104

104:                                              ; preds = %90
  br label %105

105:                                              ; preds = %104
  br label %106

106:                                              ; preds = %105
  %107 = load i32, ptr %24, align 4
  %108 = add i32 %107, 1
  store i32 %108, ptr %24, align 4
  %109 = load i32, ptr %19, align 4
  %110 = icmp ult i32 %108, %109
  br i1 %110, label %73, label %111, !llvm.loop !16

111:                                              ; preds = %106
  br label %112

112:                                              ; preds = %111
  br label %113

113:                                              ; preds = %112
  br label %114

114:                                              ; preds = %113
  %115 = load ptr, ptr %9, align 8
  store ptr %115, ptr %29, align 8
  %116 = load ptr, ptr %10, align 8
  store ptr %116, ptr %30, align 8
  %117 = load ptr, ptr %13, align 8
  %118 = getelementptr inbounds %struct.SurfaceDataRasInfo, ptr %117, i32 0, i32 4
  %119 = load i32, ptr %118, align 8
  store i32 %119, ptr %31, align 4
  %120 = load ptr, ptr %14, align 8
  %121 = getelementptr inbounds %struct.SurfaceDataRasInfo, ptr %120, i32 0, i32 4
  %122 = load i32, ptr %121, align 8
  store i32 %122, ptr %32, align 4
  %123 = load i32, ptr %11, align 4
  %124 = mul i32 %123, 1
  %125 = load i32, ptr %31, align 4
  %126 = sub i32 %125, %124
  store i32 %126, ptr %31, align 4
  %127 = load i32, ptr %11, align 4
  %128 = mul i32 %127, 2
  %129 = load i32, ptr %32, align 4
  %130 = sub i32 %129, %128
  store i32 %130, ptr %32, align 4
  br label %131

131:                                              ; preds = %167, %114
  %132 = load i32, ptr %11, align 4
  store i32 %132, ptr %33, align 4
  br label %133

133:                                              ; preds = %150, %131
  %134 = load ptr, ptr %29, align 8
  %135 = getelementptr inbounds i8, ptr %134, i64 0
  %136 = load i8, ptr %135, align 1
  %137 = zext i8 %136 to i64
  %138 = getelementptr inbounds [256 x i16], ptr %17, i64 0, i64 %137
  %139 = load i16, ptr %138, align 2
  %140 = load ptr, ptr %30, align 8
  %141 = getelementptr inbounds i16, ptr %140, i64 0
  store i16 %139, ptr %141, align 2
  %142 = load ptr, ptr %29, align 8
  %143 = ptrtoint ptr %142 to i64
  %144 = add nsw i64 %143, 1
  %145 = inttoptr i64 %144 to ptr
  store ptr %145, ptr %29, align 8
  %146 = load ptr, ptr %30, align 8
  %147 = ptrtoint ptr %146 to i64
  %148 = add nsw i64 %147, 2
  %149 = inttoptr i64 %148 to ptr
  store ptr %149, ptr %30, align 8
  br label %150

150:                                              ; preds = %133
  %151 = load i32, ptr %33, align 4
  %152 = add i32 %151, -1
  store i32 %152, ptr %33, align 4
  %153 = icmp ugt i32 %152, 0
  br i1 %153, label %133, label %154, !llvm.loop !17

154:                                              ; preds = %150
  %155 = load ptr, ptr %29, align 8
  %156 = ptrtoint ptr %155 to i64
  %157 = load i32, ptr %31, align 4
  %158 = sext i32 %157 to i64
  %159 = add nsw i64 %156, %158
  %160 = inttoptr i64 %159 to ptr
  store ptr %160, ptr %29, align 8
  %161 = load ptr, ptr %30, align 8
  %162 = ptrtoint ptr %161 to i64
  %163 = load i32, ptr %32, align 4
  %164 = sext i32 %163 to i64
  %165 = add nsw i64 %162, %164
  %166 = inttoptr i64 %165 to ptr
  store ptr %166, ptr %30, align 8
  br label %167

167:                                              ; preds = %154
  %168 = load i32, ptr %12, align 4
  %169 = add i32 %168, -1
  store i32 %169, ptr %12, align 4
  %170 = icmp ugt i32 %169, 0
  br i1 %170, label %131, label %171, !llvm.loop !18

171:                                              ; preds = %167
  br label %172

172:                                              ; preds = %171
  ret void
}