; Function Attrs: nofree norecurse nosync nounwind memory(readwrite, inaccessiblemem: none) uwtable
define hidden void @ByteIndexedToUshortGrayConvert(ptr noundef %0, ptr noundef %1, i32 noundef %2, i32 noundef %3, ptr nocapture noundef readonly %4, ptr nocapture noundef readonly %5, ptr nocapture readnone %6, ptr nocapture readnone %7) #1 {
  %9 = alloca [256 x i16], align 16
  %10 = getelementptr inbounds i8, ptr %4, i64 40
  %11 = load ptr, ptr %10, align 8
  %12 = getelementptr inbounds i8, ptr %4, i64 36
  %13 = load i32, ptr %12, align 4
  %14 = icmp ugt i32 %13, 255
  br i1 %14, label %.loopexit, label %.loopexit.loopexit

.loopexit.loopexit:                               ; preds = %8
  %15 = shl nuw nsw i32 %13, 1
  %.idx = zext nneg i32 %15 to i64
  %scevgep = getelementptr i8, ptr %9, i64 %.idx
  %16 = sub nuw nsw i64 512, %.idx
  call void @llvm.memset.p0.i64(ptr align 2 %scevgep, i8 0, i64 %16, i1 false)
  br label %.loopexit

.loopexit:                                        ; preds = %.loopexit.loopexit, %8
  %.042 = phi i32 [ 256, %8 ], [ %13, %.loopexit.loopexit ]
  %umax = tail call i32 @llvm.umax.i32(i32 %.042, i32 1)
  %wide.trip.count = zext nneg i32 %umax to i64
  br label %17

17:                                               ; preds = %17, %.loopexit
  %indvars.iv = phi i64 [ %indvars.iv.next, %17 ], [ 0, %.loopexit ]
  %18 = getelementptr inbounds i32, ptr %11, i64 %indvars.iv
  %19 = load i32, ptr %18, align 4
  %20 = and i32 %19, 255
  %21 = lshr i32 %19, 8
  %22 = and i32 %21, 255
  %23 = lshr i32 %19, 16
  %24 = and i32 %23, 255
  %25 = mul nuw nsw i32 %24, 19672
  %26 = mul nuw nsw i32 %22, 38621
  %27 = mul nuw nsw i32 %20, 7500
  %28 = add nuw nsw i32 %26, %27
  %29 = add nuw nsw i32 %28, %25
  %30 = lshr i32 %29, 8
  %31 = trunc nuw i32 %30 to i16
  %32 = getelementptr inbounds [256 x i16], ptr %9, i64 0, i64 %indvars.iv
  store i16 %31, ptr %32, align 2
  %indvars.iv.next = add nuw nsw i64 %indvars.iv, 1
  %exitcond.not = icmp eq i64 %indvars.iv.next, %wide.trip.count
  br i1 %exitcond.not, label %33, label %17, !llvm.loop !15

33:                                               ; preds = %17
  %34 = getelementptr inbounds i8, ptr %4, i64 32
  %35 = load i32, ptr %34, align 8
  %36 = getelementptr inbounds i8, ptr %5, i64 32
  %37 = load i32, ptr %36, align 8
  %38 = sub i32 %35, %2
  %39 = shl i32 %2, 1
  %40 = sub i32 %37, %39
  %41 = sext i32 %38 to i64
  %42 = sext i32 %40 to i64
  br label %43

43:                                               ; preds = %56, %33
  %.041 = phi i32 [ %3, %33 ], [ %61, %56 ]
  %.039 = phi ptr [ %0, %33 ], [ %58, %56 ]
  %.038 = phi ptr [ %1, %33 ], [ %60, %56 ]
  br label %44

44:                                               ; preds = %44, %43
  %.140 = phi ptr [ %.039, %43 ], [ %51, %44 ]
  %.1 = phi ptr [ %.038, %43 ], [ %54, %44 ]
  %.0 = phi i32 [ %2, %43 ], [ %55, %44 ]
  %45 = load i8, ptr %.140, align 1
  %46 = zext i8 %45 to i64
  %47 = getelementptr inbounds [256 x i16], ptr %9, i64 0, i64 %46
  %48 = load i16, ptr %47, align 2
  store i16 %48, ptr %.1, align 2
  %49 = ptrtoint ptr %.140 to i64
  %50 = add nsw i64 %49, 1
  %51 = inttoptr i64 %50 to ptr
  %52 = ptrtoint ptr %.1 to i64
  %53 = add nsw i64 %52, 2
  %54 = inttoptr i64 %53 to ptr
  %55 = add i32 %.0, -1
  %.not = icmp eq i32 %55, 0
  br i1 %.not, label %56, label %44, !llvm.loop !16

56:                                               ; preds = %44
  %57 = add nsw i64 %50, %41
  %58 = inttoptr i64 %57 to ptr
  %59 = add nsw i64 %53, %42
  %60 = inttoptr i64 %59 to ptr
  %61 = add i32 %.041, -1
  %.not48 = icmp eq i32 %61, 0
  br i1 %.not48, label %62, label %43, !llvm.loop !17

62:                                               ; preds = %56
  ret void
}